; ModuleID = '2/99.c'
source_filename = "2/99.c"
target datalayout = "e-m:e-p270:32:32-p271:32:32-p272:64:64-i64:64-f80:128-n8:16:32:64-S128"
target triple = "x86_64-pc-linux-gnu"

@.str = private unnamed_addr constant [3 x i8] c"%d\00", align 1
@.str.1 = private unnamed_addr constant [6 x i8] c"%d %s\00", align 1
@.str.2 = private unnamed_addr constant [4 x i8] c"%c\0A\00", align 1
@.str.3 = private unnamed_addr constant [4 x i8] c"%d\0A\00", align 1

; Function Attrs: noinline nounwind uwtable
define dso_local i32 @main() #0 {
  %1 = alloca i32, align 4
  %2 = alloca i32, align 4
  %3 = alloca i32, align 4
  %4 = alloca i32, align 4
  %5 = alloca i32, align 4
  %6 = alloca i32, align 4
  %7 = alloca [1000 x i32], align 16
  %8 = alloca [1000 x [30 x i8]], align 16
  %9 = alloca [27 x i32], align 16
  %10 = alloca i32, align 4
  %11 = alloca i8, align 1
  store i32 0, i32* %1, align 4
  %12 = call i32 (i8*, ...) @__isoc99_scanf(i8* getelementptr inbounds ([3 x i8], [3 x i8]* @.str, i64 0, i64 0), i32* %2)
  %13 = bitcast [27 x i32]* %9 to i8*
  call void @llvm.memset.p0i8.i64(i8* align 16 %13, i8 0, i64 108, i1 false)
  store i32 1, i32* %3, align 4
  br label %14

14:                                               ; preds = %56, %0
  %15 = load i32, i32* %3, align 4
  %16 = load i32, i32* %2, align 4
  %17 = icmp sle i32 %15, %16
  br i1 %17, label %18, label %59

18:                                               ; preds = %14
  %19 = load i32, i32* %3, align 4
  %20 = sext i32 %19 to i64
  %21 = getelementptr inbounds [1000 x i32], [1000 x i32]* %7, i64 0, i64 %20
  %22 = load i32, i32* %3, align 4
  %23 = sext i32 %22 to i64
  %24 = getelementptr inbounds [1000 x [30 x i8]], [1000 x [30 x i8]]* %8, i64 0, i64 %23
  %25 = getelementptr inbounds [30 x i8], [30 x i8]* %24, i64 0, i64 0
  %26 = call i32 (i8*, ...) @__isoc99_scanf(i8* getelementptr inbounds ([6 x i8], [6 x i8]* @.str.1, i64 0, i64 0), i32* %21, i8* %25)
  store i32 0, i32* %4, align 4
  br label %27

27:                                               ; preds = %52, %18
  %28 = load i32, i32* %3, align 4
  %29 = sext i32 %28 to i64
  %30 = getelementptr inbounds [1000 x [30 x i8]], [1000 x [30 x i8]]* %8, i64 0, i64 %29
  %31 = load i32, i32* %4, align 4
  %32 = sext i32 %31 to i64
  %33 = getelementptr inbounds [30 x i8], [30 x i8]* %30, i64 0, i64 %32
  %34 = load i8, i8* %33, align 1
  %35 = sext i8 %34 to i32
  %36 = icmp ne i32 %35, 0
  br i1 %36, label %37, label %55

37:                                               ; preds = %27
  %38 = load i32, i32* %3, align 4
  %39 = sext i32 %38 to i64
  %40 = getelementptr inbounds [1000 x [30 x i8]], [1000 x [30 x i8]]* %8, i64 0, i64 %39
  %41 = load i32, i32* %4, align 4
  %42 = sext i32 %41 to i64
  %43 = getelementptr inbounds [30 x i8], [30 x i8]* %40, i64 0, i64 %42
  %44 = load i8, i8* %43, align 1
  %45 = sext i8 %44 to i32
  %46 = sub nsw i32 %45, 65
  %47 = add nsw i32 %46, 1
  %48 = sext i32 %47 to i64
  %49 = getelementptr inbounds [27 x i32], [27 x i32]* %9, i64 0, i64 %48
  %50 = load i32, i32* %49, align 4
  %51 = add nsw i32 %50, 1
  store i32 %51, i32* %49, align 4
  br label %52

52:                                               ; preds = %37
  %53 = load i32, i32* %4, align 4
  %54 = add nsw i32 %53, 1
  store i32 %54, i32* %4, align 4
  br label %27

55:                                               ; preds = %27
  br label %56

56:                                               ; preds = %55
  %57 = load i32, i32* %3, align 4
  %58 = add nsw i32 %57, 1
  store i32 %58, i32* %3, align 4
  br label %14

59:                                               ; preds = %14
  store i32 0, i32* %10, align 4
  store i32 1, i32* %3, align 4
  br label %60

60:                                               ; preds = %77, %59
  %61 = load i32, i32* %3, align 4
  %62 = icmp sle i32 %61, 26
  br i1 %62, label %63, label %80

63:                                               ; preds = %60
  %64 = load i32, i32* %3, align 4
  %65 = sext i32 %64 to i64
  %66 = getelementptr inbounds [27 x i32], [27 x i32]* %9, i64 0, i64 %65
  %67 = load i32, i32* %66, align 4
  %68 = load i32, i32* %10, align 4
  %69 = icmp sgt i32 %67, %68
  br i1 %69, label %70, label %76

70:                                               ; preds = %63
  %71 = load i32, i32* %3, align 4
  %72 = sext i32 %71 to i64
  %73 = getelementptr inbounds [27 x i32], [27 x i32]* %9, i64 0, i64 %72
  %74 = load i32, i32* %73, align 4
  store i32 %74, i32* %10, align 4
  %75 = load i32, i32* %3, align 4
  store i32 %75, i32* %6, align 4
  br label %76

76:                                               ; preds = %70, %63
  br label %77

77:                                               ; preds = %76
  %78 = load i32, i32* %3, align 4
  %79 = add nsw i32 %78, 1
  store i32 %79, i32* %3, align 4
  br label %60

80:                                               ; preds = %60
  %81 = load i32, i32* %6, align 4
  %82 = add nsw i32 65, %81
  %83 = sub nsw i32 %82, 1
  %84 = trunc i32 %83 to i8
  store i8 %84, i8* %11, align 1
  %85 = load i8, i8* %11, align 1
  %86 = sext i8 %85 to i32
  %87 = call i32 (i8*, ...) @printf(i8* getelementptr inbounds ([4 x i8], [4 x i8]* @.str.2, i64 0, i64 0), i32 %86)
  %88 = load i32, i32* %10, align 4
  %89 = call i32 (i8*, ...) @printf(i8* getelementptr inbounds ([4 x i8], [4 x i8]* @.str.3, i64 0, i64 0), i32 %88)
  store i32 1, i32* %3, align 4
  br label %90

90:                                               ; preds = %127, %80
  %91 = load i32, i32* %3, align 4
  %92 = load i32, i32* %2, align 4
  %93 = icmp sle i32 %91, %92
  br i1 %93, label %94, label %130

94:                                               ; preds = %90
  store i32 0, i32* %4, align 4
  br label %95

95:                                               ; preds = %123, %94
  %96 = load i32, i32* %4, align 4
  %97 = sext i32 %96 to i64
  %98 = load i32, i32* %3, align 4
  %99 = sext i32 %98 to i64
  %100 = getelementptr inbounds [1000 x [30 x i8]], [1000 x [30 x i8]]* %8, i64 0, i64 %99
  %101 = getelementptr inbounds [30 x i8], [30 x i8]* %100, i64 0, i64 0
  %102 = call i64 @strlen(i8* %101) #4
  %103 = icmp ult i64 %97, %102
  br i1 %103, label %104, label %126

104:                                              ; preds = %95
  %105 = load i32, i32* %3, align 4
  %106 = sext i32 %105 to i64
  %107 = getelementptr inbounds [1000 x [30 x i8]], [1000 x [30 x i8]]* %8, i64 0, i64 %106
  %108 = load i32, i32* %4, align 4
  %109 = sext i32 %108 to i64
  %110 = getelementptr inbounds [30 x i8], [30 x i8]* %107, i64 0, i64 %109
  %111 = load i8, i8* %110, align 1
  %112 = sext i8 %111 to i32
  %113 = load i8, i8* %11, align 1
  %114 = sext i8 %113 to i32
  %115 = icmp eq i32 %112, %114
  br i1 %115, label %116, label %122

116:                                              ; preds = %104
  %117 = load i32, i32* %3, align 4
  %118 = sext i32 %117 to i64
  %119 = getelementptr inbounds [1000 x i32], [1000 x i32]* %7, i64 0, i64 %118
  %120 = load i32, i32* %119, align 4
  %121 = call i32 (i8*, ...) @printf(i8* getelementptr inbounds ([4 x i8], [4 x i8]* @.str.3, i64 0, i64 0), i32 %120)
  br label %122

122:                                              ; preds = %116, %104
  br label %123

123:                                              ; preds = %122
  %124 = load i32, i32* %4, align 4
  %125 = add nsw i32 %124, 1
  store i32 %125, i32* %4, align 4
  br label %95

126:                                              ; preds = %95
  br label %127

127:                                              ; preds = %126
  %128 = load i32, i32* %3, align 4
  %129 = add nsw i32 %128, 1
  store i32 %129, i32* %3, align 4
  br label %90

130:                                              ; preds = %90
  ret i32 0
}

declare dso_local i32 @__isoc99_scanf(i8*, ...) #1

; Function Attrs: argmemonly nounwind willreturn
declare void @llvm.memset.p0i8.i64(i8* nocapture writeonly, i8, i64, i1 immarg) #2

declare dso_local i32 @printf(i8*, ...) #1

; Function Attrs: nounwind readonly
declare dso_local i64 @strlen(i8*) #3


!llvm.module.flags = !{!0}
!llvm.ident = !{!1}

!0 = !{i32 1, !"wchar_size", i32 4}
!1 = !{!"clang version 10.0.0-4ubuntu1 "}
